target datalayout = "e-m:e-p270:32:32-p271:32:32-p272:64:64-i64:64-i128:128-f80:128-n8:16:32:64-S128"
target triple = "x86_64-pc-linux-gnu"

%"class.LIEF::PE::RsaInfo" = type { ptr }

; Function Attrs: mustprogress nounwind uwtable
define void @_ZN4LIEF2PE7RsaInfoD2Ev(ptr noundef nonnull align 8 dereferenceable(8) %0) unnamed_addr #0 align 2 {
  %2 = alloca ptr, align 8
  %3 = alloca ptr, align 8
  store ptr %0, ptr %2, align 8, !tbaa !3
  %4 = load ptr, ptr %2, align 8
  %5 = getelementptr inbounds nuw %"class.LIEF::PE::RsaInfo", ptr %4, i32 0, i32 0
  %6 = load ptr, ptr %5, align 8, !tbaa !19
  %7 = icmp ne ptr %6, null
  br i1 %7, label %8, label %16

8:                                                ; preds = %1
  call void @llvm.lifetime.start.p0(i64 8, ptr %3) #10
  %9 = getelementptr inbounds nuw %"class.LIEF::PE::RsaInfo", ptr %4, i32 0, i32 0
  %10 = load ptr, ptr %9, align 8, !tbaa !19
  store ptr %10, ptr %3, align 8, !tbaa !9
  %11 = load ptr, ptr %3, align 8, !tbaa !9
  call void @mbedtls_rsa_free(ptr noundef %11)
  %12 = load ptr, ptr %3, align 8, !tbaa !9
  %13 = icmp eq ptr %12, null
  br i1 %13, label %15, label %14

14:                                               ; preds = %8
  call void @_ZdlPvm(ptr noundef %12, i64 noundef 232) #12
  br label %15

15:                                               ; preds = %14, %8
  call void @llvm.lifetime.end.p0(i64 8, ptr %3) #10
  br label %16

16:                                               ; preds = %15, %1
  ret void
}