; Function Attrs: mustprogress nounwind uwtable
define void @_ZN4LIEF2PE7RsaInfoD2Ev(ptr noundef nonnull readonly align 8 captures(none) dereferenceable(8) %0) unnamed_addr #1 align 2 {
  %2 = load ptr, ptr %0, align 8, !tbaa !14
  %.not = icmp eq ptr %2, null
  br i1 %.not, label %4, label %3

3:                                                ; preds = %1
  tail call void @mbedtls_rsa_free(ptr noundef nonnull %2) #10
  tail call void @_ZdlPvm(ptr noundef nonnull %2, i64 noundef 232) #12
  br label %4

4:                                                ; preds = %3, %1
  ret void
}